target datalayout = "e-m:e-p270:32:32-p271:32:32-p272:64:64-i64:64-i128:128-f80:128-n8:16:32:64-S128"
target triple = "x86_64-pc-linux-gnu"

%struct._e_guid_t = type { i32, i16, i16, [8 x i8] }
%struct.CFullPropSpec = type { %struct._e_guid_t, i32, %union.anon.2 }
%union.anon.2 = type { ptr }
%struct.__va_list_tag = type { i32, i32, ptr, ptr }
%struct.CBaseStorageVariant = type { i16, i16, i16, %union.vValue, ptr }
%union.vValue = type { %struct.vt_array }
%struct.vt_array = type { %struct.vt_vector, i16, i16, i32, ptr }
%struct.vt_vector = type { i32, %union.anon.0 }
%union.anon.0 = type { ptr }
%struct.CPropertyRestriction = type { i32, %struct.CFullPropSpec, %struct.CBaseStorageVariant, i32 }

@hf_mswsp_lcid = internal global i32 0, align 4
@.str.83 = private unnamed_addr constant [5 x i8] c"lcid\00", align 1
@hf_mswsp_lcid_sortid = internal global i32 0, align 4
@hf_mswsp_lcid_langid = internal global i32 0, align 4
@hf_mswsp_cproprestrict_relop = internal global i32 0, align 4
@ett_CPropertyRestriction = internal global i32 0, align 4
@ett_LCID = internal global i32 0, align 4
@.str.1156 = private unnamed_addr constant [29 x i8] c"%s:%u: failed assertion \22%s\22\00", align 1
@.str.1157 = private unnamed_addr constant [31 x i8] c"epan/dissectors/packet-mswsp.c\00", align 1
@.str.1169 = private unnamed_addr constant [1 x i8] zeroinitializer, align 1
@.str.1264 = private unnamed_addr constant [2 x i8] c"0\00", align 1
@.str.1287 = private unnamed_addr constant [8 x i8] c" Op: %s\00", align 1
@.str.1288 = private unnamed_addr constant [9 x i8] c"Property\00", align 1
@.str.1289 = private unnamed_addr constant [6 x i8] c"prval\00", align 1
@.str.1290 = private unnamed_addr constant [13 x i8] c"padding_lcid\00", align 1
@.str.1291 = private unnamed_addr constant [28 x i8] c"(tmp & 0xf) < PRSomeBits +1\00", align 1
@.str.1292 = private unnamed_addr constant [7 x i8] c"0x%04x\00", align 1
@.str.1293 = private unnamed_addr constant [6 x i8] c"%s | \00", align 1
@.str.1294 = private unnamed_addr constant [5 x i8] c"%s%s\00", align 1
@.str.1295 = private unnamed_addr constant [12 x i8] c"%s (0x%04x)\00", align 1
@.str.1317 = private unnamed_addr constant [9 x i8] c"%s: 0x%x\00", align 1

; Function Attrs: null_pointer_is_valid sspstrong uwtable
define internal i32 @parse_lcid(ptr noundef %0, i32 noundef %1, ptr noundef %2, ptr noundef %3) #0 {
  %5 = alloca ptr, align 8
  %6 = alloca i32, align 4
  %7 = alloca ptr, align 8
  %8 = alloca ptr, align 8
  %9 = alloca ptr, align 8
  %10 = alloca ptr, align 8
  %11 = alloca i32, align 4
  store ptr %0, ptr %5, align 8
  store i32 %1, ptr %6, align 4
  store ptr %2, ptr %7, align 8
  store ptr %3, ptr %8, align 8
  call void @llvm.lifetime.start.p0(i64 8, ptr %9) #11
  call void @llvm.lifetime.start.p0(i64 8, ptr %10) #11
  call void @llvm.lifetime.start.p0(i64 4, ptr %11) #11
  %12 = load ptr, ptr %5, align 8
  %13 = load i32, ptr %6, align 4
  %14 = call i32 @tvb_get_letohl(ptr noundef %12, i32 noundef %13)
  store i32 %14, ptr %11, align 4
  %15 = load ptr, ptr %7, align 8
  %16 = load i32, ptr @hf_mswsp_lcid, align 4
  %17 = load ptr, ptr %5, align 8
  %18 = load i32, ptr %6, align 4
  %19 = load i32, ptr %11, align 4
  %20 = load ptr, ptr %8, align 8
  %21 = load i32, ptr %11, align 4
  %22 = call ptr (ptr, i32, ptr, i32, i32, i32, ptr, ...) @proto_tree_add_uint_format(ptr noundef %15, i32 noundef %16, ptr noundef %17, i32 noundef %18, i32 noundef 4, i32 noundef %19, ptr noundef @.str.1317, ptr noundef %20, i32 noundef %21)
  store ptr %22, ptr %9, align 8
  %23 = load ptr, ptr %9, align 8
  %24 = load i32, ptr @ett_LCID, align 4
  %25 = call ptr @proto_item_add_subtree(ptr noundef %23, i32 noundef %24)
  store ptr %25, ptr %10, align 8
  %26 = load ptr, ptr %10, align 8
  %27 = load i32, ptr @hf_mswsp_lcid_langid, align 4
  %28 = load ptr, ptr %5, align 8
  %29 = load i32, ptr %6, align 4
  %30 = add i32 %29, 2
  %31 = load i32, ptr %11, align 4
  %32 = call ptr @proto_tree_add_uint(ptr noundef %26, i32 noundef %27, ptr noundef %28, i32 noundef %30, i32 noundef 2, i32 noundef %31)
  %33 = load ptr, ptr %10, align 8
  %34 = load i32, ptr @hf_mswsp_lcid_sortid, align 4
  %35 = load ptr, ptr %5, align 8
  %36 = load i32, ptr %6, align 4
  %37 = add i32 %36, 1
  %38 = load i32, ptr %11, align 4
  %39 = lshr i32 %38, 16
  %40 = and i32 %39, 15
  %41 = call ptr @proto_tree_add_uint(ptr noundef %33, i32 noundef %34, ptr noundef %35, i32 noundef %37, i32 noundef 1, i32 noundef %40)
  %42 = load i32, ptr %6, align 4
  %43 = add i32 %42, 4
  store i32 %43, ptr %6, align 4
  %44 = load i32, ptr %6, align 4
  call void @llvm.lifetime.end.p0(i64 4, ptr %11) #11
  call void @llvm.lifetime.end.p0(i64 8, ptr %10) #11
  call void @llvm.lifetime.end.p0(i64 8, ptr %9) #11
  ret i32 %44
}

; Function Attrs: null_pointer_is_valid sspstrong uwtable
define internal i32 @parse_relop(ptr noundef %0, i32 noundef %1, ptr noundef %2, ptr noundef %3, ptr noundef %4) #0 {
  %6 = alloca ptr, align 8
  %7 = alloca i32, align 4
  %8 = alloca ptr, align 8
  %9 = alloca ptr, align 8
  %10 = alloca ptr, align 8
  %11 = alloca ptr, align 8
  %12 = alloca ptr, align 8
  %13 = alloca i32, align 4
  %14 = alloca i32, align 4
  store ptr %0, ptr %6, align 8
  store i32 %1, ptr %7, align 4
  store ptr %2, ptr %8, align 8
  store ptr %3, ptr %9, align 8
  store ptr %4, ptr %10, align 8
  call void @llvm.lifetime.start.p0(i64 8, ptr %11) #11
  store ptr null, ptr %11, align 8
  call void @llvm.lifetime.start.p0(i64 8, ptr %12) #11
  store ptr null, ptr %12, align 8
  call void @llvm.lifetime.start.p0(i64 4, ptr %13) #11
  %15 = load ptr, ptr %6, align 8
  %16 = load i32, ptr %7, align 4
  %17 = call i32 @tvb_get_letohl(ptr noundef %15, i32 noundef %16)
  store i32 %17, ptr %13, align 4
  call void @llvm.lifetime.start.p0(i64 4, ptr %14) #11
  %18 = load i32, ptr %13, align 4
  %19 = and i32 %18, 3840
  store i32 %19, ptr %14, align 4
  %20 = load i32, ptr %13, align 4
  %21 = and i32 %20, 15
  %22 = icmp ult i32 %21, 9
  br i1 %22, label %23, label %24

23:                                               ; preds = %5
  br label %26

24:                                               ; preds = %5
  call void (ptr, ...) @proto_report_dissector_bug(ptr noundef @.str.1156, ptr noundef @.str.1157, i32 noundef 3443, ptr noundef @.str.1291) #12
  unreachable

25:                                               ; No predecessors!
  br label %26

26:                                               ; preds = %25, %23
  %27 = load i32, ptr %13, align 4
  %28 = and i32 %27, 15
  switch i32 %28, label %47 [
    i32 0, label %29
    i32 1, label %31
    i32 2, label %33
    i32 3, label %35
    i32 4, label %37
    i32 5, label %39
    i32 6, label %41
    i32 7, label %43
    i32 8, label %45
  ]

29:                                               ; preds = %26
  %30 = load ptr, ptr %9, align 8
  store i32 0, ptr %30, align 4
  br label %48

31:                                               ; preds = %26
  %32 = load ptr, ptr %9, align 8
  store i32 1, ptr %32, align 4
  br label %48

33:                                               ; preds = %26
  %34 = load ptr, ptr %9, align 8
  store i32 2, ptr %34, align 4
  br label %48

35:                                               ; preds = %26
  %36 = load ptr, ptr %9, align 8
  store i32 3, ptr %36, align 4
  br label %48

37:                                               ; preds = %26
  %38 = load ptr, ptr %9, align 8
  store i32 4, ptr %38, align 4
  br label %48

39:                                               ; preds = %26
  %40 = load ptr, ptr %9, align 8
  store i32 5, ptr %40, align 4
  br label %48

41:                                               ; preds = %26
  %42 = load ptr, ptr %9, align 8
  store i32 6, ptr %42, align 4
  br label %48

43:                                               ; preds = %26
  %44 = load ptr, ptr %9, align 8
  store i32 7, ptr %44, align 4
  br label %48

45:                                               ; preds = %26
  %46 = load ptr, ptr %9, align 8
  store i32 8, ptr %46, align 4
  br label %48

47:                                               ; preds = %26
  br label %48

48:                                               ; preds = %47, %45, %43, %41, %39, %37, %35, %33, %31, %29
  %49 = load ptr, ptr %9, align 8
  %50 = load i32, ptr %49, align 4
  %51 = call ptr @val_to_str(i32 noundef %50, ptr noundef @PR_VALS, ptr noundef @.str.1292)
  store ptr %51, ptr %12, align 8
  %52 = load i32, ptr %14, align 4
  %53 = icmp ne i32 %52, 0
  br i1 %53, label %54, label %80

54:                                               ; preds = %48
  %55 = load i32, ptr %14, align 4
  switch i32 %55, label %65 [
    i32 256, label %56
    i32 512, label %61
  ]

56:                                               ; preds = %54
  %57 = load ptr, ptr %9, align 8
  %58 = load i32, ptr %57, align 4
  %59 = or i32 %58, 256
  %60 = load ptr, ptr %9, align 8
  store i32 %59, ptr %60, align 4
  br label %66

61:                                               ; preds = %54
  %62 = load ptr, ptr %9, align 8
  %63 = load i32, ptr %62, align 4
  %64 = or i32 %63, 512
  store i32 %64, ptr %62, align 4
  br label %66

65:                                               ; preds = %54
  call void (ptr, ...) @proto_report_dissector_bug(ptr noundef @.str.1156, ptr noundef @.str.1157, i32 noundef 3488, ptr noundef @.str.1264) #12
  unreachable

66:                                               ; preds = %61, %56
  %67 = load i32, ptr %14, align 4
  %68 = call ptr @try_val_to_str(i32 noundef %67, ptr noundef @PR_VALS)
  store ptr %68, ptr %11, align 8
  %69 = load ptr, ptr %11, align 8
  %70 = icmp ne ptr %69, null
  br i1 %70, label %71, label %79

71:                                               ; preds = %66
  %72 = call ptr @wmem_packet_scope()
  %73 = load ptr, ptr %11, align 8
  %74 = call noalias ptr (ptr, ptr, ...) @wmem_strdup_printf(ptr noundef %72, ptr noundef @.str.1293, ptr noundef %73)
  store ptr %74, ptr %11, align 8
  %75 = call ptr @wmem_packet_scope()
  %76 = load ptr, ptr %11, align 8
  %77 = load ptr, ptr %12, align 8
  %78 = call noalias ptr (ptr, ptr, ...) @wmem_strdup_printf(ptr noundef %75, ptr noundef @.str.1294, ptr noundef %76, ptr noundef %77)
  store ptr %78, ptr %12, align 8
  br label %79

79:                                               ; preds = %71, %66
  br label %80

80:                                               ; preds = %79, %48
  %81 = load ptr, ptr %8, align 8
  %82 = load i32, ptr @hf_mswsp_cproprestrict_relop, align 4
  %83 = load ptr, ptr %6, align 8
  %84 = load i32, ptr %7, align 4
  %85 = load ptr, ptr %12, align 8
  %86 = load ptr, ptr %12, align 8
  %87 = getelementptr i8, ptr %86, i64 0
  %88 = load i8, ptr %87, align 1
  %89 = sext i8 %88 to i32
  %90 = icmp eq i32 %89, 0
  br i1 %90, label %91, label %92

91:                                               ; preds = %80
  br label %94

92:                                               ; preds = %80
  %93 = load ptr, ptr %12, align 8
  br label %94

94:                                               ; preds = %92, %91
  %95 = phi ptr [ @.str.1169, %91 ], [ %93, %92 ]
  %96 = load ptr, ptr %9, align 8
  %97 = load i32, ptr %96, align 4
  %98 = call ptr (ptr, i32, ptr, i32, i32, ptr, ptr, ...) @proto_tree_add_string_format_value(ptr noundef %81, i32 noundef %82, ptr noundef %83, i32 noundef %84, i32 noundef 4, ptr noundef %85, ptr noundef @.str.1295, ptr noundef %95, i32 noundef %97)
  %99 = load ptr, ptr %10, align 8
  %100 = icmp ne ptr %99, null
  br i1 %100, label %101, label %104

101:                                              ; preds = %94
  %102 = load ptr, ptr %12, align 8
  %103 = load ptr, ptr %10, align 8
  store ptr %102, ptr %103, align 8
  br label %104

104:                                              ; preds = %101, %94
  %105 = load i32, ptr %7, align 4
  %106 = add i32 %105, 4
  call void @llvm.lifetime.end.p0(i64 4, ptr %14) #11
  call void @llvm.lifetime.end.p0(i64 4, ptr %13) #11
  call void @llvm.lifetime.end.p0(i64 8, ptr %12) #11
  call void @llvm.lifetime.end.p0(i64 8, ptr %11) #11
  ret i32 %106
}

; Function Attrs: null_pointer_is_valid sspstrong uwtable
define internal i32 @parse_CPropertyRestriction(ptr noundef %0, ptr noundef %1, i32 noundef %2, ptr noundef %3, ptr noundef %4, ptr noundef %5, ptr noundef %6, ...) #0 {
  %8 = alloca ptr, align 8
  %9 = alloca ptr, align 8
  %10 = alloca i32, align 4
  %11 = alloca ptr, align 8
  %12 = alloca ptr, align 8
  %13 = alloca ptr, align 8
  %14 = alloca ptr, align 8
  %15 = alloca ptr, align 8
  %16 = alloca ptr, align 8
  %17 = alloca ptr, align 8
  %18 = alloca ptr, align 8
  %19 = alloca [1 x %struct.__va_list_tag], align 16
  store ptr %0, ptr %8, align 8
  store ptr %1, ptr %9, align 8
  store i32 %2, ptr %10, align 4
  store ptr %3, ptr %11, align 8
  store ptr %4, ptr %12, align 8
  store ptr %5, ptr %13, align 8
  store ptr %6, ptr %14, align 8
  call void @llvm.lifetime.start.p0(i64 8, ptr %15) #11
  call void @llvm.lifetime.start.p0(i64 8, ptr %16) #11
  call void @llvm.lifetime.start.p0(i64 8, ptr %17) #11
  call void @llvm.lifetime.start.p0(i64 8, ptr %18) #11
  store ptr null, ptr %18, align 8
  call void @llvm.lifetime.start.p0(i64 24, ptr %19) #11
  %20 = getelementptr inbounds [1 x %struct.__va_list_tag], ptr %19, i64 0, i64 0
  call void @llvm.va_start.p0(ptr %20)
  %21 = call ptr @wmem_packet_scope()
  %22 = load ptr, ptr %14, align 8
  %23 = getelementptr inbounds [1 x %struct.__va_list_tag], ptr %19, i64 0, i64 0
  %24 = call noalias ptr @wmem_strdup_vprintf(ptr noundef %21, ptr noundef %22, ptr noundef %23)
  store ptr %24, ptr %17, align 8
  %25 = getelementptr inbounds [1 x %struct.__va_list_tag], ptr %19, i64 0, i64 0
  call void @llvm.va_end.p0(ptr %25)
  %26 = load ptr, ptr %11, align 8
  %27 = load ptr, ptr %8, align 8
  %28 = load i32, ptr %10, align 4
  %29 = load i32, ptr @ett_CPropertyRestriction, align 4
  %30 = load ptr, ptr %17, align 8
  %31 = call ptr @proto_tree_add_subtree(ptr noundef %26, ptr noundef %27, i32 noundef %28, i32 noundef 0, i32 noundef %29, ptr noundef %16, ptr noundef %30)
  store ptr %31, ptr %15, align 8
  %32 = load ptr, ptr %8, align 8
  %33 = load i32, ptr %10, align 4
  %34 = load ptr, ptr %15, align 8
  %35 = load ptr, ptr %13, align 8
  %36 = getelementptr inbounds nuw %struct.CPropertyRestriction, ptr %35, i32 0, i32 0
  %37 = call i32 @parse_relop(ptr noundef %32, i32 noundef %33, ptr noundef %34, ptr noundef %36, ptr noundef %18)
  store i32 %37, ptr %10, align 4
  %38 = load ptr, ptr %16, align 8
  %39 = load ptr, ptr %18, align 8
  call void (ptr, ptr, ...) @proto_item_append_text(ptr noundef %38, ptr noundef @.str.1287, ptr noundef %39)
  %40 = load ptr, ptr %8, align 8
  %41 = load i32, ptr %10, align 4
  %42 = load ptr, ptr %15, align 8
  %43 = load ptr, ptr %12, align 8
  %44 = load ptr, ptr %13, align 8
  %45 = getelementptr inbounds nuw %struct.CPropertyRestriction, ptr %44, i32 0, i32 1
  %46 = call i32 (ptr, i32, ptr, ptr, ptr, ptr, ...) @parse_CFullPropSpec(ptr noundef %40, i32 noundef %41, ptr noundef %42, ptr noundef %43, ptr noundef %45, ptr noundef @.str.1288)
  store i32 %46, ptr %10, align 4
  %47 = load ptr, ptr %8, align 8
  %48 = load ptr, ptr %9, align 8
  %49 = load i32, ptr %10, align 4
  %50 = load ptr, ptr %15, align 8
  %51 = load ptr, ptr %12, align 8
  %52 = load ptr, ptr %13, align 8
  %53 = getelementptr inbounds nuw %struct.CPropertyRestriction, ptr %52, i32 0, i32 2
  %54 = call i32 @parse_CBaseStorageVariant(ptr noundef %47, ptr noundef %48, i32 noundef %49, ptr noundef %50, ptr noundef %51, ptr noundef %53, ptr noundef @.str.1289)
  store i32 %54, ptr %10, align 4
  %55 = load ptr, ptr %8, align 8
  %56 = load i32, ptr %10, align 4
  %57 = load ptr, ptr %12, align 8
  %58 = call i32 (ptr, i32, i32, ptr, ptr, ...) @parse_padding(ptr noundef %55, i32 noundef %56, i32 noundef 4, ptr noundef %57, ptr noundef @.str.1290)
  store i32 %58, ptr %10, align 4
  %59 = load ptr, ptr %8, align 8
  %60 = load i32, ptr %10, align 4
  %61 = call i32 @tvb_get_letohl(ptr noundef %59, i32 noundef %60)
  %62 = load ptr, ptr %13, align 8
  %63 = getelementptr inbounds nuw %struct.CPropertyRestriction, ptr %62, i32 0, i32 3
  store i32 %61, ptr %63, align 8
  %64 = load ptr, ptr %8, align 8
  %65 = load i32, ptr %10, align 4
  %66 = load ptr, ptr %15, align 8
  %67 = call i32 @parse_lcid(ptr noundef %64, i32 noundef %65, ptr noundef %66, ptr noundef @.str.83)
  store i32 %67, ptr %10, align 4
  %68 = load ptr, ptr %16, align 8
  %69 = load ptr, ptr %8, align 8
  %70 = load i32, ptr %10, align 4
  call void @proto_item_set_end(ptr noundef %68, ptr noundef %69, i32 noundef %70)
  %71 = load i32, ptr %10, align 4
  call void @llvm.lifetime.end.p0(i64 24, ptr %19) #11
  call void @llvm.lifetime.end.p0(i64 8, ptr %18) #11
  call void @llvm.lifetime.end.p0(i64 8, ptr %17) #11
  call void @llvm.lifetime.end.p0(i64 8, ptr %16) #11
  call void @llvm.lifetime.end.p0(i64 8, ptr %15) #11
  ret i32 %71
}